target datalayout = "e-m:e-p270:32:32-p271:32:32-p272:64:64-i64:64-i128:128-f80:128-n8:16:32:64-S128"
target triple = "x86_64-pc-linux-gnu"

%struct.expert_field = type { i32, i32 }
%struct._packet_info = type { ptr, ptr, i32, i32, %struct.nstime_t, %struct.nstime_t, %struct.nstime_t, i32, ptr, ptr, ptr, ptr, %struct._address, %struct._address, %struct._address, %struct._address, %struct._address, %struct._address, i32, ptr, i32, %struct.anon, i32, i32, i32, i32, ptr, i32, ptr, ptr, i16, i16, i32, i32, i16, i32, i32, ptr, ptr, ptr, i8, i8, i16, i16, i16, i32, i16, i16, ptr, ptr, ptr, ptr, ptr, i32 }
%struct.nstime_t = type { i64, i32 }
%struct._address = type { i32, i32, ptr, ptr }
%struct.anon = type { i8, [3 x i8] }

@data_handle = internal global ptr null, align 8
@hf_tcp_option_kind = internal global i32 0, align 4
@hf_tcp_option_len = internal global i32 0, align 4
@hf_tcp_option_rvbd_trpy_flags = internal global i32 0, align 4
@hf_tcp_option_rvbd_trpy_src = internal global i32 0, align 4
@hf_tcp_option_rvbd_trpy_dst = internal global i32 0, align 4
@hf_tcp_option_rvbd_trpy_src_port = internal global i32 0, align 4
@hf_tcp_option_rvbd_trpy_dst_port = internal global i32 0, align 4
@hf_tcp_option_rvbd_trpy_client_port = internal global i32 0, align 4
@ett_tcp_opt_rvbd_trpy = internal global i32 0, align 4
@ett_tcp_opt_rvbd_trpy_flags = internal global i32 0, align 4
@ei_tcp_opt_len_invalid = internal global %struct.expert_field zeroinitializer, align 4
@proto_tcp_option_rvbd_trpy = internal global i32 0, align 4
@sport_handle = internal global ptr null, align 8
@.str.985 = private unnamed_addr constant [27 x i8] c"option length should be %u\00", align 1
@.str.1042 = private unnamed_addr constant [7 x i8] c"TRPY, \00", align 1
@.str.1043 = private unnamed_addr constant [16 x i8] c" %s:%u -> %s:%u\00", align 1

; Function Attrs: nounwind uwtable
define internal i32 @tcp_option_len_check(ptr noundef %0, ptr noundef %1, i32 noundef %2, i32 noundef %3) #0 {
  %5 = alloca i32, align 4
  %6 = alloca ptr, align 8
  %7 = alloca ptr, align 8
  %8 = alloca i32, align 4
  %9 = alloca i32, align 4
  store ptr %0, ptr %6, align 8
  store ptr %1, ptr %7, align 8
  store i32 %2, ptr %8, align 4
  store i32 %3, ptr %9, align 4
  %10 = load i32, ptr %8, align 4
  %11 = load i32, ptr %9, align 4
  %12 = icmp ne i32 %10, %11
  br i1 %12, label %13, label %18

13:                                               ; preds = %4
  %14 = load ptr, ptr %7, align 8
  %15 = load ptr, ptr %6, align 8
  %16 = load i32, ptr %9, align 4
  %17 = call ptr (ptr, ptr, ptr, ptr, ...) @expert_add_info_format(ptr noundef %14, ptr noundef %15, ptr noundef @ei_tcp_opt_len_invalid, ptr noundef @.str.985, i32 noundef %16)
  store i32 0, ptr %5, align 4
  br label %19

18:                                               ; preds = %4
  store i32 1, ptr %5, align 4
  br label %19

19:                                               ; preds = %18, %13
  %20 = load i32, ptr %5, align 4
  ret i32 %20
}

; Function Attrs: nounwind uwtable
define internal i32 @dissect_tcpopt_rvbd_trpy(ptr noundef %0, ptr noundef %1, ptr noundef %2, ptr noundef %3) #0 {
  %5 = alloca i32, align 4
  %6 = alloca ptr, align 8
  %7 = alloca ptr, align 8
  %8 = alloca ptr, align 8
  %9 = alloca ptr, align 8
  %10 = alloca ptr, align 8
  %11 = alloca ptr, align 8
  %12 = alloca ptr, align 8
  %13 = alloca i16, align 2
  %14 = alloca i16, align 2
  %15 = alloca i16, align 2
  %16 = alloca i32, align 4
  %17 = alloca i32, align 4
  %18 = alloca ptr, align 8
  %19 = alloca ptr, align 8
  store ptr %0, ptr %6, align 8
  store ptr %1, ptr %7, align 8
  store ptr %2, ptr %8, align 8
  store ptr %3, ptr %9, align 8
  store i32 0, ptr %16, align 4
  %20 = load ptr, ptr %6, align 8
  %21 = call i32 @tvb_reported_length(ptr noundef %20)
  store i32 %21, ptr %17, align 4
  %22 = load ptr, ptr %7, align 8
  %23 = getelementptr inbounds %struct._packet_info, ptr %22, i32 0, i32 1
  %24 = load ptr, ptr %23, align 8
  call void (ptr, i32, ptr, ...) @col_prepend_fstr(ptr noundef %24, i32 noundef 25, ptr noundef @.str.1042)
  %25 = load ptr, ptr %8, align 8
  %26 = load i32, ptr @proto_tcp_option_rvbd_trpy, align 4
  %27 = load ptr, ptr %6, align 8
  %28 = load i32, ptr %16, align 4
  %29 = call ptr @proto_tree_add_item(ptr noundef %25, i32 noundef %26, ptr noundef %27, i32 noundef %28, i32 noundef -1, i32 noundef 0)
  store ptr %29, ptr %11, align 8
  %30 = load ptr, ptr %11, align 8
  %31 = load i32, ptr @ett_tcp_opt_rvbd_trpy, align 4
  %32 = call ptr @proto_item_add_subtree(ptr noundef %30, i32 noundef %31)
  store ptr %32, ptr %10, align 8
  %33 = load ptr, ptr %10, align 8
  %34 = load i32, ptr @hf_tcp_option_kind, align 4
  %35 = load ptr, ptr %6, align 8
  %36 = load i32, ptr %16, align 4
  %37 = call ptr @proto_tree_add_item(ptr noundef %33, i32 noundef %34, ptr noundef %35, i32 noundef %36, i32 noundef 1, i32 noundef 0)
  %38 = load ptr, ptr %10, align 8
  %39 = load i32, ptr @hf_tcp_option_len, align 4
  %40 = load ptr, ptr %6, align 8
  %41 = load i32, ptr %16, align 4
  %42 = add i32 %41, 1
  %43 = call ptr @proto_tree_add_item(ptr noundef %38, i32 noundef %39, ptr noundef %40, i32 noundef %42, i32 noundef 1, i32 noundef 0)
  store ptr %43, ptr %12, align 8
  %44 = load ptr, ptr %12, align 8
  %45 = load ptr, ptr %7, align 8
  %46 = load i32, ptr %17, align 4
  %47 = call i32 @tcp_option_len_check(ptr noundef %44, ptr noundef %45, i32 noundef %46, i32 noundef 16)
  %48 = icmp ne i32 %47, 0
  br i1 %48, label %52, label %49

49:                                               ; preds = %4
  %50 = load ptr, ptr %6, align 8
  %51 = call i32 @tvb_captured_length(ptr noundef %50)
  store i32 %51, ptr %5, align 4
  br label %167

52:                                               ; preds = %4
  %53 = load ptr, ptr %6, align 8
  %54 = load i32, ptr %16, align 4
  %55 = add i32 %54, 2
  %56 = call zeroext i16 @tvb_get_ntohs(ptr noundef %53, i32 noundef %55)
  store i16 %56, ptr %15, align 2
  %57 = load ptr, ptr %10, align 8
  %58 = load ptr, ptr %6, align 8
  %59 = load i32, ptr %16, align 4
  %60 = add i32 %59, 2
  %61 = load i32, ptr @hf_tcp_option_rvbd_trpy_flags, align 4
  %62 = load i32, ptr @ett_tcp_opt_rvbd_trpy_flags, align 4
  %63 = call ptr @proto_tree_add_bitmask_with_flags(ptr noundef %57, ptr noundef %58, i32 noundef %60, i32 noundef %61, i32 noundef %62, ptr noundef @dissect_tcpopt_rvbd_trpy.rvbd_trpy_flags, i32 noundef 0, i32 noundef 1)
  %64 = load ptr, ptr %10, align 8
  %65 = load i32, ptr @hf_tcp_option_rvbd_trpy_src, align 4
  %66 = load ptr, ptr %6, align 8
  %67 = load i32, ptr %16, align 4
  %68 = add i32 %67, 4
  %69 = call ptr @proto_tree_add_item(ptr noundef %64, i32 noundef %65, ptr noundef %66, i32 noundef %68, i32 noundef 4, i32 noundef 0)
  %70 = load ptr, ptr %10, align 8
  %71 = load i32, ptr @hf_tcp_option_rvbd_trpy_dst, align 4
  %72 = load ptr, ptr %6, align 8
  %73 = load i32, ptr %16, align 4
  %74 = add i32 %73, 8
  %75 = call ptr @proto_tree_add_item(ptr noundef %70, i32 noundef %71, ptr noundef %72, i32 noundef %74, i32 noundef 4, i32 noundef 0)
  %76 = load ptr, ptr %6, align 8
  %77 = load i32, ptr %16, align 4
  %78 = add i32 %77, 12
  %79 = call zeroext i16 @tvb_get_ntohs(ptr noundef %76, i32 noundef %78)
  store i16 %79, ptr %13, align 2
  %80 = load ptr, ptr %10, align 8
  %81 = load i32, ptr @hf_tcp_option_rvbd_trpy_src_port, align 4
  %82 = load ptr, ptr %6, align 8
  %83 = load i32, ptr %16, align 4
  %84 = add i32 %83, 12
  %85 = call ptr @proto_tree_add_item(ptr noundef %80, i32 noundef %81, ptr noundef %82, i32 noundef %84, i32 noundef 2, i32 noundef 0)
  %86 = load ptr, ptr %6, align 8
  %87 = load i32, ptr %16, align 4
  %88 = add i32 %87, 14
  %89 = call zeroext i16 @tvb_get_ntohs(ptr noundef %86, i32 noundef %88)
  store i16 %89, ptr %14, align 2
  %90 = load ptr, ptr %10, align 8
  %91 = load i32, ptr @hf_tcp_option_rvbd_trpy_dst_port, align 4
  %92 = load ptr, ptr %6, align 8
  %93 = load i32, ptr %16, align 4
  %94 = add i32 %93, 14
  %95 = call ptr @proto_tree_add_item(ptr noundef %90, i32 noundef %91, ptr noundef %92, i32 noundef %94, i32 noundef 2, i32 noundef 0)
  %96 = load ptr, ptr %11, align 8
  %97 = load ptr, ptr %7, align 8
  %98 = getelementptr inbounds %struct._packet_info, ptr %97, i32 0, i32 50
  %99 = load ptr, ptr %98, align 8
  %100 = load ptr, ptr %6, align 8
  %101 = load i32, ptr %16, align 4
  %102 = add i32 %101, 4
  %103 = call ptr @tvb_address_to_str(ptr noundef %99, ptr noundef %100, i32 noundef 2, i32 noundef %102)
  %104 = load i16, ptr %13, align 2
  %105 = zext i16 %104 to i32
  %106 = load ptr, ptr %7, align 8
  %107 = getelementptr inbounds %struct._packet_info, ptr %106, i32 0, i32 50
  %108 = load ptr, ptr %107, align 8
  %109 = load ptr, ptr %6, align 8
  %110 = load i32, ptr %16, align 4
  %111 = add i32 %110, 8
  %112 = call ptr @tvb_address_to_str(ptr noundef %108, ptr noundef %109, i32 noundef 2, i32 noundef %111)
  %113 = load i16, ptr %14, align 2
  %114 = zext i16 %113 to i32
  call void (ptr, ptr, ...) @proto_item_append_text(ptr noundef %96, ptr noundef @.str.1043, ptr noundef %103, i32 noundef %105, ptr noundef %112, i32 noundef %114)
  %115 = load i16, ptr %15, align 2
  %116 = zext i16 %115 to i32
  %117 = and i32 %116, 2
  %118 = icmp ne i32 %117, 0
  br i1 %118, label %119, label %129

119:                                              ; preds = %52
  %120 = load i32, ptr %17, align 4
  %121 = icmp sgt i32 %120, 16
  br i1 %121, label %122, label %129

122:                                              ; preds = %119
  %123 = load ptr, ptr %10, align 8
  %124 = load i32, ptr @hf_tcp_option_rvbd_trpy_client_port, align 4
  %125 = load ptr, ptr %6, align 8
  %126 = load i32, ptr %16, align 4
  %127 = add i32 %126, 16
  %128 = call ptr @proto_tree_add_item(ptr noundef %123, i32 noundef %124, ptr noundef %125, i32 noundef %127, i32 noundef 2, i32 noundef 0)
  br label %129

129:                                              ; preds = %122, %119, %52
  %130 = load ptr, ptr @sport_handle, align 8
  %131 = icmp ne ptr %130, null
  br i1 %131, label %132, label %146

132:                                              ; preds = %129
  %133 = load ptr, ptr %7, align 8
  %134 = call nonnull ptr @find_or_create_conversation(ptr noundef %133)
  store ptr %134, ptr %18, align 8
  %135 = load ptr, ptr %18, align 8
  %136 = load ptr, ptr %7, align 8
  %137 = getelementptr inbounds %struct._packet_info, ptr %136, i32 0, i32 3
  %138 = load i32, ptr %137, align 4
  %139 = call ptr @conversation_get_dissector(ptr noundef %135, i32 noundef %138)
  %140 = load ptr, ptr @sport_handle, align 8
  %141 = icmp ne ptr %139, %140
  br i1 %141, label %142, label %145

142:                                              ; preds = %132
  %143 = load ptr, ptr %18, align 8
  %144 = load ptr, ptr @sport_handle, align 8
  call void @conversation_set_dissector(ptr noundef %143, ptr noundef %144)
  br label %145

145:                                              ; preds = %142, %132
  br label %164

146:                                              ; preds = %129
  %147 = load ptr, ptr @data_handle, align 8
  %148 = icmp ne ptr %147, null
  br i1 %148, label %149, label %163

149:                                              ; preds = %146
  %150 = load ptr, ptr %7, align 8
  %151 = call nonnull ptr @find_or_create_conversation(ptr noundef %150)
  store ptr %151, ptr %19, align 8
  %152 = load ptr, ptr %19, align 8
  %153 = load ptr, ptr %7, align 8
  %154 = getelementptr inbounds %struct._packet_info, ptr %153, i32 0, i32 3
  %155 = load i32, ptr %154, align 4
  %156 = call ptr @conversation_get_dissector(ptr noundef %152, i32 noundef %155)
  %157 = load ptr, ptr @data_handle, align 8
  %158 = icmp ne ptr %156, %157
  br i1 %158, label %159, label %162

159:                                              ; preds = %149
  %160 = load ptr, ptr %19, align 8
  %161 = load ptr, ptr @data_handle, align 8
  call void @conversation_set_dissector(ptr noundef %160, ptr noundef %161)
  br label %162

162:                                              ; preds = %159, %149
  br label %163

163:                                              ; preds = %162, %146
  br label %164

164:                                              ; preds = %163, %145
  %165 = load ptr, ptr %6, align 8
  %166 = call i32 @tvb_captured_length(ptr noundef %165)
  store i32 %166, ptr %5, align 4
  br label %167

167:                                              ; preds = %164, %49
  %168 = load i32, ptr %5, align 4
  ret i32 %168
}