; Function Attrs: nounwind uwtable
define internal i32 @dissect_tcpopt_rvbd_trpy(ptr noundef %0, ptr noundef %1, ptr noundef %2, ptr readnone captures(none) %3) #0 {
  %5 = tail call i32 @tvb_reported_length(ptr noundef %0) #20
  %6 = getelementptr inbounds nuw i8, ptr %1, i64 8
  %7 = load ptr, ptr %6, align 8
  tail call void (ptr, i32, ptr, ...) @col_prepend_fstr(ptr noundef %7, i32 noundef 25, ptr noundef nonnull @.str.1042) #20
  %8 = load i32, ptr @proto_tcp_option_rvbd_trpy, align 4
  %9 = tail call ptr @proto_tree_add_item(ptr noundef %2, i32 noundef %8, ptr noundef %0, i32 noundef 0, i32 noundef -1, i32 noundef 0) #20
  %10 = load i32, ptr @ett_tcp_opt_rvbd_trpy, align 4
  %11 = tail call ptr @proto_item_add_subtree(ptr noundef %9, i32 noundef %10) #20
  %12 = load i32, ptr @hf_tcp_option_kind, align 4
  %13 = tail call ptr @proto_tree_add_item(ptr noundef %11, i32 noundef %12, ptr noundef %0, i32 noundef 0, i32 noundef 1, i32 noundef 0) #20
  %14 = load i32, ptr @hf_tcp_option_len, align 4
  %15 = tail call ptr @proto_tree_add_item(ptr noundef %11, i32 noundef %14, ptr noundef %0, i32 noundef 1, i32 noundef 1, i32 noundef 0) #20
  %.not.i = icmp eq i32 %5, 16
  br i1 %.not.i, label %18, label %16

16:                                               ; preds = %4
  %17 = tail call ptr (ptr, ptr, ptr, ptr, ...) @expert_add_info_format(ptr noundef nonnull %1, ptr noundef %15, ptr noundef nonnull @ei_tcp_opt_len_invalid, ptr noundef nonnull @.str.985, i32 noundef 16) #20
  br label %57

18:                                               ; preds = %4
  %19 = tail call zeroext i16 @tvb_get_ntohs(ptr noundef %0, i32 noundef 2) #20
  %20 = load i32, ptr @hf_tcp_option_rvbd_trpy_flags, align 4
  %21 = load i32, ptr @ett_tcp_opt_rvbd_trpy_flags, align 4
  %22 = tail call ptr @proto_tree_add_bitmask_with_flags(ptr noundef %11, ptr noundef %0, i32 noundef 2, i32 noundef %20, i32 noundef %21, ptr noundef nonnull @dissect_tcpopt_rvbd_trpy.rvbd_trpy_flags, i32 noundef 0, i32 noundef 1) #20
  %23 = load i32, ptr @hf_tcp_option_rvbd_trpy_src, align 4
  %24 = tail call ptr @proto_tree_add_item(ptr noundef %11, i32 noundef %23, ptr noundef %0, i32 noundef 4, i32 noundef 4, i32 noundef 0) #20
  %25 = load i32, ptr @hf_tcp_option_rvbd_trpy_dst, align 4
  %26 = tail call ptr @proto_tree_add_item(ptr noundef %11, i32 noundef %25, ptr noundef %0, i32 noundef 8, i32 noundef 4, i32 noundef 0) #20
  %27 = tail call zeroext i16 @tvb_get_ntohs(ptr noundef %0, i32 noundef 12) #20
  %28 = load i32, ptr @hf_tcp_option_rvbd_trpy_src_port, align 4
  %29 = tail call ptr @proto_tree_add_item(ptr noundef %11, i32 noundef %28, ptr noundef %0, i32 noundef 12, i32 noundef 2, i32 noundef 0) #20
  %30 = tail call zeroext i16 @tvb_get_ntohs(ptr noundef %0, i32 noundef 14) #20
  %31 = load i32, ptr @hf_tcp_option_rvbd_trpy_dst_port, align 4
  %32 = tail call ptr @proto_tree_add_item(ptr noundef %11, i32 noundef %31, ptr noundef %0, i32 noundef 14, i32 noundef 2, i32 noundef 0) #20
  %33 = getelementptr inbounds nuw i8, ptr %1, i64 408
  %34 = load ptr, ptr %33, align 8
  %35 = tail call ptr @tvb_address_to_str(ptr noundef %34, ptr noundef %0, i32 noundef 2, i32 noundef 4) #20
  %36 = zext i16 %27 to i32
  %37 = load ptr, ptr %33, align 8
  %38 = tail call ptr @tvb_address_to_str(ptr noundef %37, ptr noundef %0, i32 noundef 2, i32 noundef 8) #20
  %39 = zext i16 %30 to i32
  tail call void (ptr, ptr, ...) @proto_item_append_text(ptr noundef %9, ptr noundef nonnull @.str.1043, ptr noundef %35, i32 noundef %36, ptr noundef %38, i32 noundef %39) #20
  %40 = load ptr, ptr @sport_handle, align 8
  %.not63 = icmp eq ptr %40, null
  br i1 %.not63, label %48, label %41

41:                                               ; preds = %18
  %42 = tail call nonnull ptr @find_or_create_conversation(ptr noundef nonnull %1) #20
  %43 = getelementptr inbounds nuw i8, ptr %1, i64 20
  %44 = load i32, ptr %43, align 4
  %45 = tail call ptr @conversation_get_dissector(ptr noundef nonnull %42, i32 noundef %44) #20
  %46 = load ptr, ptr @sport_handle, align 8
  %.not66 = icmp eq ptr %45, %46
  br i1 %.not66, label %57, label %47

47:                                               ; preds = %41
  tail call void @conversation_set_dissector(ptr noundef nonnull %42, ptr noundef %46) #20
  br label %57

48:                                               ; preds = %18
  %49 = load ptr, ptr @data_handle, align 8
  %.not64 = icmp eq ptr %49, null
  br i1 %.not64, label %57, label %50

50:                                               ; preds = %48
  %51 = tail call nonnull ptr @find_or_create_conversation(ptr noundef nonnull %1) #20
  %52 = getelementptr inbounds nuw i8, ptr %1, i64 20
  %53 = load i32, ptr %52, align 4
  %54 = tail call ptr @conversation_get_dissector(ptr noundef nonnull %51, i32 noundef %53) #20
  %55 = load ptr, ptr @data_handle, align 8
  %.not65 = icmp eq ptr %54, %55
  br i1 %.not65, label %57, label %56

56:                                               ; preds = %50
  tail call void @conversation_set_dissector(ptr noundef nonnull %51, ptr noundef %55) #20
  br label %57

57:                                               ; preds = %47, %41, %50, %56, %48, %16
  %58 = tail call i32 @tvb_captured_length(ptr noundef %0) #20
  ret i32 %58
}